target datalayout = "e-m:e-p270:32:32-p271:32:32-p272:64:64-i64:64-i128:128-f80:128-n8:16:32:64-S128"
target triple = "x86_64-pc-linux-gnu"

%struct.VP8EncIterator = type { i32, i32, ptr, ptr, ptr, ptr, ptr, ptr, ptr, ptr, ptr, [37 x i8], ptr, i32, [9 x i32], [9 x i32], [4 x [3 x i64]], i64, i64, ptr, i32, i32, i32, i32, [2 x [2 x i8]], ptr, ptr, ptr, ptr, ptr, ptr, [88 x i8], [3359 x i8] }
%struct.VP8Encoder = type { ptr, ptr, %struct.VP8EncFilterHeader, %struct.VP8EncSegmentHeader, i32, i32, i32, i32, i32, %struct.VP8BitWriter, [8 x %struct.VP8BitWriter], %struct.VP8TBuffer, i32, i32, ptr, i32, %struct.WebPWorker, [4 x %struct.VP8SegmentInfo], i32, i32, i32, i32, i32, i32, i32, i32, %struct.VP8EncProba, [4 x i64], i64, i32, [3 x [4 x i32]], [3 x i32], i32, i32, i32, i32, i32, i32, i32, ptr, ptr, ptr, ptr, ptr, ptr, ptr }
%struct.VP8EncFilterHeader = type { i32, i32, i32, i32 }
%struct.VP8EncSegmentHeader = type { i32, i32, i32 }
%struct.VP8BitWriter = type { i32, i32, i32, i32, ptr, i64, i64, i32 }
%struct.VP8TBuffer = type { ptr, ptr, ptr, i32, i32, i32 }
%struct.WebPWorker = type { ptr, i32, ptr, ptr, ptr, i32 }
%struct.VP8SegmentInfo = type { %struct.VP8Matrix, %struct.VP8Matrix, %struct.VP8Matrix, i32, i32, i32, i32, i32, i32, i32, i32, i32, i32, i32, i32, i32, i32, i32, i64 }
%struct.VP8Matrix = type { [16 x i16], [16 x i16], [16 x i32], [16 x i32], [16 x i16] }
%struct.VP8EncProba = type { [3 x i8], i8, [4 x [8 x [3 x [11 x i8]]]], [4 x [8 x [3 x [11 x i32]]]], [4 x [8 x [3 x [68 x i16]]]], [4 x [16 x [3 x ptr]]], i32, i32, i32 }

; Function Attrs: nounwind uwtable
define hidden void @VP8SetIntra4Mode(ptr noundef %0, ptr noundef %1) #0 {
  %3 = alloca ptr, align 8
  %4 = alloca ptr, align 8
  %5 = alloca ptr, align 8
  %6 = alloca i32, align 4
  store ptr %0, ptr %3, align 8, !tbaa !3
  store ptr %1, ptr %4, align 8, !tbaa !68
  call void @llvm.lifetime.start.p0(i64 8, ptr %5) #6
  %7 = load ptr, ptr %3, align 8, !tbaa !3
  %8 = getelementptr inbounds nuw %struct.VP8EncIterator, ptr %7, i32 0, i32 9
  %9 = load ptr, ptr %8, align 8, !tbaa !36
  store ptr %9, ptr %5, align 8, !tbaa !68
  call void @llvm.lifetime.start.p0(i64 4, ptr %6) #6
  store i32 4, ptr %6, align 4, !tbaa !7
  br label %10

10:                                               ; preds = %26, %2
  %11 = load i32, ptr %6, align 4, !tbaa !7
  %12 = icmp sgt i32 %11, 0
  br i1 %12, label %13, label %29

13:                                               ; preds = %10
  %14 = load ptr, ptr %5, align 8, !tbaa !68
  %15 = load ptr, ptr %4, align 8, !tbaa !68
  call void @llvm.memcpy.p0.p0.i64(ptr align 1 %14, ptr align 1 %15, i64 4, i1 false)
  %16 = load ptr, ptr %3, align 8, !tbaa !3
  %17 = getelementptr inbounds nuw %struct.VP8EncIterator, ptr %16, i32 0, i32 6
  %18 = load ptr, ptr %17, align 8, !tbaa !9
  %19 = getelementptr inbounds nuw %struct.VP8Encoder, ptr %18, i32 0, i32 7
  %20 = load i32, ptr %19, align 8, !tbaa !35
  %21 = load ptr, ptr %5, align 8, !tbaa !68
  %22 = sext i32 %20 to i64
  %23 = getelementptr inbounds i8, ptr %21, i64 %22
  store ptr %23, ptr %5, align 8, !tbaa !68
  %24 = load ptr, ptr %4, align 8, !tbaa !68
  %25 = getelementptr inbounds i8, ptr %24, i64 4
  store ptr %25, ptr %4, align 8, !tbaa !68
  br label %26

26:                                               ; preds = %13
  %27 = load i32, ptr %6, align 4, !tbaa !7
  %28 = add nsw i32 %27, -1
  store i32 %28, ptr %6, align 4, !tbaa !7
  br label %10, !llvm.loop !91

29:                                               ; preds = %10
  %30 = load ptr, ptr %3, align 8, !tbaa !3
  %31 = getelementptr inbounds nuw %struct.VP8EncIterator, ptr %30, i32 0, i32 7
  %32 = load ptr, ptr %31, align 8, !tbaa !41
  %33 = load i8, ptr %32, align 4
  %34 = and i8 %33, -4
  %35 = or i8 %34, 0
  store i8 %35, ptr %32, align 4
  call void @llvm.lifetime.end.p0(i64 4, ptr %6) #6
  call void @llvm.lifetime.end.p0(i64 8, ptr %5) #6
  ret void
}