; Function Attrs: nofree norecurse nosync nounwind memory(readwrite, inaccessiblemem: none) uwtable
define hidden void @VP8SetIntra4Mode(ptr noundef readonly captures(none) %0, ptr noundef readonly captures(none) %1) local_unnamed_addr #5 {
  %3 = getelementptr inbounds nuw i8, ptr %0, i64 64
  %4 = load ptr, ptr %3, align 8, !tbaa !33
  %5 = getelementptr inbounds nuw i8, ptr %0, i64 40
  br label %6

6:                                                ; preds = %2, %6
  %.012 = phi i32 [ 4, %2 ], [ %14, %6 ]
  %.0811 = phi ptr [ %4, %2 ], [ %12, %6 ]
  %.0910 = phi ptr [ %1, %2 ], [ %13, %6 ]
  %7 = load i32, ptr %.0910, align 1
  store i32 %7, ptr %.0811, align 1
  %8 = load ptr, ptr %5, align 8, !tbaa !3
  %9 = getelementptr inbounds nuw i8, ptr %8, i64 56
  %10 = load i32, ptr %9, align 8, !tbaa !32
  %11 = sext i32 %10 to i64
  %12 = getelementptr inbounds i8, ptr %.0811, i64 %11
  %13 = getelementptr inbounds nuw i8, ptr %.0910, i64 4
  %14 = add nsw i32 %.012, -1
  %15 = icmp ugt i32 %.012, 1
  br i1 %15, label %6, label %16, !llvm.loop !86

16:                                               ; preds = %6
  %17 = getelementptr inbounds nuw i8, ptr %0, i64 48
  %18 = load ptr, ptr %17, align 8, !tbaa !38
  %19 = load i8, ptr %18, align 4
  %20 = and i8 %19, -4
  store i8 %20, ptr %18, align 4
  ret void
}